target datalayout = "e-m:e-p270:32:32-p271:32:32-p272:64:64-i64:64-f80:128-n8:16:32:64-S128"
target triple = "x86_64-pc-linux-gnu"

@.str = private unnamed_addr constant [6 x i8] c"%d %d\00", align 1
@.str.1 = private unnamed_addr constant [3 x i8] c"%d\00", align 1
@.str.2 = private unnamed_addr constant [4 x i8] c" %d\00", align 1
@.str.3 = private unnamed_addr constant [2 x i8] c"\0A\00", align 1

; Function Attrs: noinline nounwind uwtable
define dso_local i32 @main() #0 {
  %1 = alloca i32, align 4
  %2 = alloca i32, align 4
  %3 = alloca i32, align 4
  %4 = alloca i32, align 4
  %5 = alloca i32, align 4
  %6 = alloca i32, align 4
  %7 = alloca i32, align 4
  %8 = alloca i32, align 4
  %9 = alloca i32, align 4
  %10 = alloca i32, align 4
  %11 = alloca i8*, align 8
  %12 = alloca i64, align 8
  %13 = alloca i64, align 8
  %14 = alloca i64, align 8
  %15 = alloca i64, align 8
  %16 = alloca i64, align 8
  %17 = alloca i64, align 8
  store i32 0, i32* %1, align 4
  %18 = call i32 (i8*, ...) @__isoc99_scanf(i8* getelementptr inbounds ([6 x i8], [6 x i8]* @.str, i64 0, i64 0), i32* %2, i32* %4)
  %19 = load i32, i32* %2, align 4
  %20 = zext i32 %19 to i64
  %21 = load i32, i32* %4, align 4
  %22 = zext i32 %21 to i64
  %23 = call i8* @llvm.stacksave()
  store i8* %23, i8** %11, align 8
  %24 = mul nuw i64 %20, %22
  %25 = alloca i32, i64 %24, align 16
  store i64 %20, i64* %12, align 8
  store i64 %22, i64* %13, align 8
  store i32 0, i32* %6, align 4
  br label %26

26:                                               ; preds = %48, %0
  %27 = load i32, i32* %6, align 4
  %28 = load i32, i32* %2, align 4
  %29 = icmp slt i32 %27, %28
  br i1 %29, label %30, label %51

30:                                               ; preds = %26
  store i32 0, i32* %7, align 4
  br label %31

31:                                               ; preds = %44, %30
  %32 = load i32, i32* %7, align 4
  %33 = load i32, i32* %4, align 4
  %34 = icmp slt i32 %32, %33
  br i1 %34, label %35, label %47

35:                                               ; preds = %31
  %36 = load i32, i32* %6, align 4
  %37 = sext i32 %36 to i64
  %38 = mul nsw i64 %37, %22
  %39 = getelementptr inbounds i32, i32* %25, i64 %38
  %40 = load i32, i32* %7, align 4
  %41 = sext i32 %40 to i64
  %42 = getelementptr inbounds i32, i32* %39, i64 %41
  %43 = call i32 (i8*, ...) @__isoc99_scanf(i8* getelementptr inbounds ([3 x i8], [3 x i8]* @.str.1, i64 0, i64 0), i32* %42)
  br label %44

44:                                               ; preds = %35
  %45 = load i32, i32* %7, align 4
  %46 = add nsw i32 %45, 1
  store i32 %46, i32* %7, align 4
  br label %31

47:                                               ; preds = %31
  br label %48

48:                                               ; preds = %47
  %49 = load i32, i32* %6, align 4
  %50 = add nsw i32 %49, 1
  store i32 %50, i32* %6, align 4
  br label %26

51:                                               ; preds = %26
  %52 = call i32 (i8*, ...) @__isoc99_scanf(i8* getelementptr inbounds ([6 x i8], [6 x i8]* @.str, i64 0, i64 0), i32* %3, i32* %5)
  %53 = load i32, i32* %3, align 4
  %54 = zext i32 %53 to i64
  %55 = load i32, i32* %5, align 4
  %56 = zext i32 %55 to i64
  %57 = mul nuw i64 %54, %56
  %58 = alloca i32, i64 %57, align 16
  store i64 %54, i64* %14, align 8
  store i64 %56, i64* %15, align 8
  store i32 0, i32* %6, align 4
  br label %59

59:                                               ; preds = %81, %51
  %60 = load i32, i32* %6, align 4
  %61 = load i32, i32* %3, align 4
  %62 = icmp slt i32 %60, %61
  br i1 %62, label %63, label %84

63:                                               ; preds = %59
  store i32 0, i32* %7, align 4
  br label %64

64:                                               ; preds = %77, %63
  %65 = load i32, i32* %7, align 4
  %66 = load i32, i32* %5, align 4
  %67 = icmp slt i32 %65, %66
  br i1 %67, label %68, label %80

68:                                               ; preds = %64
  %69 = load i32, i32* %6, align 4
  %70 = sext i32 %69 to i64
  %71 = mul nsw i64 %70, %56
  %72 = getelementptr inbounds i32, i32* %58, i64 %71
  %73 = load i32, i32* %7, align 4
  %74 = sext i32 %73 to i64
  %75 = getelementptr inbounds i32, i32* %72, i64 %74
  %76 = call i32 (i8*, ...) @__isoc99_scanf(i8* getelementptr inbounds ([3 x i8], [3 x i8]* @.str.1, i64 0, i64 0), i32* %75)
  br label %77

77:                                               ; preds = %68
  %78 = load i32, i32* %7, align 4
  %79 = add nsw i32 %78, 1
  store i32 %79, i32* %7, align 4
  br label %64

80:                                               ; preds = %64
  br label %81

81:                                               ; preds = %80
  %82 = load i32, i32* %6, align 4
  %83 = add nsw i32 %82, 1
  store i32 %83, i32* %6, align 4
  br label %59

84:                                               ; preds = %59
  %85 = load i32, i32* %2, align 4
  %86 = zext i32 %85 to i64
  %87 = load i32, i32* %5, align 4
  %88 = zext i32 %87 to i64
  %89 = mul nuw i64 %86, %88
  %90 = alloca i32, i64 %89, align 16
  store i64 %86, i64* %16, align 8
  store i64 %88, i64* %17, align 8
  store i32 0, i32* %6, align 4
  br label %91

91:                                               ; preds = %154, %84
  %92 = load i32, i32* %6, align 4
  %93 = load i32, i32* %2, align 4
  %94 = icmp slt i32 %92, %93
  br i1 %94, label %95, label %157

95:                                               ; preds = %91
  store i32 0, i32* %7, align 4
  br label %96

96:                                               ; preds = %150, %95
  %97 = load i32, i32* %7, align 4
  %98 = load i32, i32* %5, align 4
  %99 = icmp slt i32 %97, %98
  br i1 %99, label %100, label %153

100:                                              ; preds = %96
  %101 = load i32, i32* %6, align 4
  %102 = sext i32 %101 to i64
  %103 = mul nsw i64 %102, %88
  %104 = getelementptr inbounds i32, i32* %90, i64 %103
  %105 = load i32, i32* %7, align 4
  %106 = sext i32 %105 to i64
  %107 = getelementptr inbounds i32, i32* %104, i64 %106
  store i32 0, i32* %107, align 4
  store i32 0, i32* %8, align 4
  br label %108

108:                                              ; preds = %146, %100
  %109 = load i32, i32* %8, align 4
  %110 = load i32, i32* %4, align 4
  %111 = icmp slt i32 %109, %110
  br i1 %111, label %112, label %149

112:                                              ; preds = %108
  %113 = load i32, i32* %6, align 4
  %114 = sext i32 %113 to i64
  %115 = mul nsw i64 %114, %88
  %116 = getelementptr inbounds i32, i32* %90, i64 %115
  %117 = load i32, i32* %7, align 4
  %118 = sext i32 %117 to i64
  %119 = getelementptr inbounds i32, i32* %116, i64 %118
  %120 = load i32, i32* %119, align 4
  %121 = load i32, i32* %6, align 4
  %122 = sext i32 %121 to i64
  %123 = mul nsw i64 %122, %22
  %124 = getelementptr inbounds i32, i32* %25, i64 %123
  %125 = load i32, i32* %8, align 4
  %126 = sext i32 %125 to i64
  %127 = getelementptr inbounds i32, i32* %124, i64 %126
  %128 = load i32, i32* %127, align 4
  %129 = load i32, i32* %8, align 4
  %130 = sext i32 %129 to i64
  %131 = mul nsw i64 %130, %56
  %132 = getelementptr inbounds i32, i32* %58, i64 %131
  %133 = load i32, i32* %7, align 4
  %134 = sext i32 %133 to i64
  %135 = getelementptr inbounds i32, i32* %132, i64 %134
  %136 = load i32, i32* %135, align 4
  %137 = mul nsw i32 %128, %136
  %138 = add nsw i32 %120, %137
  %139 = load i32, i32* %6, align 4
  %140 = sext i32 %139 to i64
  %141 = mul nsw i64 %140, %88
  %142 = getelementptr inbounds i32, i32* %90, i64 %141
  %143 = load i32, i32* %7, align 4
  %144 = sext i32 %143 to i64
  %145 = getelementptr inbounds i32, i32* %142, i64 %144
  store i32 %138, i32* %145, align 4
  br label %146

146:                                              ; preds = %112
  %147 = load i32, i32* %8, align 4
  %148 = add nsw i32 %147, 1
  store i32 %148, i32* %8, align 4
  br label %108

149:                                              ; preds = %108
  br label %150

150:                                              ; preds = %149
  %151 = load i32, i32* %7, align 4
  %152 = add nsw i32 %151, 1
  store i32 %152, i32* %7, align 4
  br label %96

153:                                              ; preds = %96
  br label %154

154:                                              ; preds = %153
  %155 = load i32, i32* %6, align 4
  %156 = add nsw i32 %155, 1
  store i32 %156, i32* %6, align 4
  br label %91

157:                                              ; preds = %91
  store i32 0, i32* %6, align 4
  br label %158

158:                                              ; preds = %189, %157
  %159 = load i32, i32* %6, align 4
  %160 = load i32, i32* %2, align 4
  %161 = icmp slt i32 %159, %160
  br i1 %161, label %162, label %192

162:                                              ; preds = %158
  %163 = load i32, i32* %6, align 4
  %164 = sext i32 %163 to i64
  %165 = mul nsw i64 %164, %88
  %166 = getelementptr inbounds i32, i32* %90, i64 %165
  %167 = getelementptr inbounds i32, i32* %166, i64 0
  %168 = load i32, i32* %167, align 4
  %169 = call i32 (i8*, ...) @printf(i8* getelementptr inbounds ([3 x i8], [3 x i8]* @.str.1, i64 0, i64 0), i32 %168)
  store i32 1, i32* %7, align 4
  br label %170

170:                                              ; preds = %184, %162
  %171 = load i32, i32* %7, align 4
  %172 = load i32, i32* %5, align 4
  %173 = icmp slt i32 %171, %172
  br i1 %173, label %174, label %187

174:                                              ; preds = %170
  %175 = load i32, i32* %6, align 4
  %176 = sext i32 %175 to i64
  %177 = mul nsw i64 %176, %88
  %178 = getelementptr inbounds i32, i32* %90, i64 %177
  %179 = load i32, i32* %7, align 4
  %180 = sext i32 %179 to i64
  %181 = getelementptr inbounds i32, i32* %178, i64 %180
  %182 = load i32, i32* %181, align 4
  %183 = call i32 (i8*, ...) @printf(i8* getelementptr inbounds ([4 x i8], [4 x i8]* @.str.2, i64 0, i64 0), i32 %182)
  br label %184

184:                                              ; preds = %174
  %185 = load i32, i32* %7, align 4
  %186 = add nsw i32 %185, 1
  store i32 %186, i32* %7, align 4
  br label %170

187:                                              ; preds = %170
  %188 = call i32 (i8*, ...) @printf(i8* getelementptr inbounds ([2 x i8], [2 x i8]* @.str.3, i64 0, i64 0))
  br label %189

189:                                              ; preds = %187
  %190 = load i32, i32* %6, align 4
  %191 = add nsw i32 %190, 1
  store i32 %191, i32* %6, align 4
  br label %158

192:                                              ; preds = %158
  %193 = load i8*, i8** %11, align 8
  call void @llvm.stackrestore(i8* %193)
  %194 = load i32, i32* %1, align 4
  ret i32 %194
}